
diag.exe:     file format elf64-littleriscv


Disassembly of section .text:

0000000080000000 <loop-0x78>:
    80000000:	f0c2c0b7          	lui	ra,0xf0c2c
    80000004:	080002b7          	lui	t0,0x8000
    80000008:	04800213          	li	tp,72
    8000000c:	00428023          	sb	tp,0(t0) # 8000000 <loop-0x78000078>
    80000010:	00028203          	lb	tp,0(t0)
    80000014:	00028303          	lb	t1,0(t0)
    80000018:	00608023          	sb	t1,0(ra) # fffffffff0c2c000 <_end+0xffffffff70c2b000>
    8000001c:	04800193          	li	gp,72
    80000020:	00308023          	sb	gp,0(ra)
    80000024:	06600193          	li	gp,102
    80000028:	00308023          	sb	gp,0(ra)
    8000002c:	06c00193          	li	gp,108
    80000030:	00308023          	sb	gp,0(ra)
    80000034:	06c00193          	li	gp,108
    80000038:	00308023          	sb	gp,0(ra)
    8000003c:	06f00193          	li	gp,111
    80000040:	00308023          	sb	gp,0(ra)
    80000044:	02000193          	li	gp,32
    80000048:	00308023          	sb	gp,0(ra)
    8000004c:	07700193          	li	gp,119
    80000050:	00308023          	sb	gp,0(ra)
    80000054:	06f00193          	li	gp,111
    80000058:	00308023          	sb	gp,0(ra)
    8000005c:	07200193          	li	gp,114
    80000060:	00308023          	sb	gp,0(ra)
    80000064:	06c00193          	li	gp,108
    80000068:	00308023          	sb	gp,0(ra)
    8000006c:	06400193          	li	gp,100
    80000070:	00308023          	sb	gp,0(ra)
    80000074:	00000113          	li	sp,0

0000000080000078 <loop>:
    80000078:	0105                	addi	sp,sp,1
    8000007a:	bffd                	j	80000078 <loop>
