
diag.exe:     file format elf64-littleriscv


Disassembly of section .text:

0000000080000000 <masked_filter_scalar>:
    80000000:	0047a383          	lw	t2,4(a5)
    80000004:	0007a283          	lw	t0,0(a5)
    80000008:	00200793          	li	a5,2
    8000000c:	00239f9b          	slliw	t6,t2,0x2
    80000010:	005f8fbb          	addw	t6,t6,t0
    80000014:	16d7d663          	bge	a5,a3,80000180 <masked_filter_scalar+0x180>
    80000018:	fa010113          	addi	sp,sp,-96
    8000001c:	04913823          	sd	s1,80(sp)
    80000020:	0007049b          	sext.w	s1,a4
    80000024:	05313023          	sd	s3,64(sp)
    80000028:	409009bb          	negw	s3,s1
    8000002c:	00149e1b          	slliw	t3,s1,0x1
    80000030:	0019999b          	slliw	s3,s3,0x1
    80000034:	04813c23          	sd	s0,88(sp)
    80000038:	05213423          	sd	s2,72(sp)
    8000003c:	03413c23          	sd	s4,56(sp)
    80000040:	03513823          	sd	s5,48(sp)
    80000044:	03613423          	sd	s6,40(sp)
    80000048:	03713023          	sd	s7,32(sp)
    8000004c:	01813c23          	sd	s8,24(sp)
    80000050:	01913823          	sd	s9,16(sp)
    80000054:	01a13423          	sd	s10,8(sp)
    80000058:	01b13023          	sd	s11,0(sp)
    8000005c:	ffee0e1b          	addiw	t3,t3,-2
    80000060:	fff6891b          	addiw	s2,a3,-1
    80000064:	00048f13          	mv	t5,s1
    80000068:	00100413          	li	s0,1
    8000006c:	00200a13          	li	s4,2
    80000070:	0029899b          	addiw	s3,s3,2
    80000074:	00100a93          	li	s5,1
    80000078:	0cea5063          	bge	s4,a4,80000138 <masked_filter_scalar+0x138>
    8000007c:	01c987bb          	addw	a5,s3,t3
    80000080:	001f0813          	addi	a6,t5,1
    80000084:	41ea833b          	subw	t1,s5,t5
    80000088:	003e089b          	addiw	a7,t3,3
    8000008c:	00281813          	slli	a6,a6,0x2
    80000090:	000f0693          	mv	a3,t5
    80000094:	00f3033b          	addw	t1,t1,a5
    80000098:	41e888bb          	subw	a7,a7,t5
    8000009c:	0440006f          	j	800000e0 <masked_filter_scalar+0xe0>
    800000a0:	000ca783          	lw	a5,0(s9)
    800000a4:	000c2c83          	lw	s9,0(s8)
    800000a8:	000b2c03          	lw	s8,0(s6)
    800000ac:	000d2b03          	lw	s6,0(s10)
    800000b0:	019787bb          	addw	a5,a5,s9
    800000b4:	018787bb          	addw	a5,a5,s8
    800000b8:	016787bb          	addw	a5,a5,s6
    800000bc:	027787bb          	mulw	a5,a5,t2
    800000c0:	0016869b          	addiw	a3,a3,1
    800000c4:	00480813          	addi	a6,a6,4
    800000c8:	03728bbb          	mulw	s7,t0,s7
    800000cc:	017787bb          	addw	a5,a5,s7
    800000d0:	03f7d7bb          	divuw	a5,a5,t6
    800000d4:	0ff7f793          	andi	a5,a5,255
    800000d8:	00fea023          	sw	a5,0(t4)
    800000dc:	05c68e63          	beq	a3,t3,80000138 <masked_filter_scalar+0x138>
    800000e0:	00d887bb          	addw	a5,a7,a3
    800000e4:	00279793          	slli	a5,a5,0x2
    800000e8:	00f60d33          	add	s10,a2,a5
    800000ec:	010587b3          	add	a5,a1,a6
    800000f0:	0007a783          	lw	a5,0(a5)
    800000f4:	00268c9b          	addiw	s9,a3,2
    800000f8:	00068c1b          	sext.w	s8,a3
    800000fc:	00d30b3b          	addw	s6,t1,a3
    80000100:	002c9c93          	slli	s9,s9,0x2
    80000104:	002c1c13          	slli	s8,s8,0x2
    80000108:	002b1b13          	slli	s6,s6,0x2
    8000010c:	01060bb3          	add	s7,a2,a6
    80000110:	01960cb3          	add	s9,a2,s9
    80000114:	01860c33          	add	s8,a2,s8
    80000118:	01660b33          	add	s6,a2,s6
    8000011c:	01050eb3          	add	t4,a0,a6
    80000120:	000bab83          	lw	s7,0(s7)
    80000124:	f6079ee3          	bnez	a5,800000a0 <masked_filter_scalar+0xa0>
    80000128:	017ea023          	sw	s7,0(t4)
    8000012c:	0016869b          	addiw	a3,a3,1
    80000130:	00480813          	addi	a6,a6,4
    80000134:	fbc696e3          	bne	a3,t3,800000e0 <masked_filter_scalar+0xe0>
    80000138:	0014041b          	addiw	s0,s0,1
    8000013c:	009e0e3b          	addw	t3,t3,s1
    80000140:	01e48f3b          	addw	t5,s1,t5
    80000144:	f3241ae3          	bne	s0,s2,80000078 <masked_filter_scalar+0x78>
    80000148:	05813403          	ld	s0,88(sp)
    8000014c:	05013483          	ld	s1,80(sp)
    80000150:	04813903          	ld	s2,72(sp)
    80000154:	04013983          	ld	s3,64(sp)
    80000158:	03813a03          	ld	s4,56(sp)
    8000015c:	03013a83          	ld	s5,48(sp)
    80000160:	02813b03          	ld	s6,40(sp)
    80000164:	02013b83          	ld	s7,32(sp)
    80000168:	01813c03          	ld	s8,24(sp)
    8000016c:	01013c83          	ld	s9,16(sp)
    80000170:	00813d03          	ld	s10,8(sp)
    80000174:	00013d83          	ld	s11,0(sp)
    80000178:	06010113          	addi	sp,sp,96
    8000017c:	00008067          	ret
    80000180:	00008067          	ret

0000000080000184 <verify_results>:
    80000184:	02c607bb          	mulw	a5,a2,a2
    80000188:	04078863          	beqz	a5,800001d8 <verify_results+0x54>
    8000018c:	fff7861b          	addiw	a2,a5,-1
    80000190:	02061613          	slli	a2,a2,0x20
    80000194:	01e65793          	srli	a5,a2,0x1e
    80000198:	00450713          	addi	a4,a0,4
    8000019c:	00e787b3          	add	a5,a5,a4
    800001a0:	00000613          	li	a2,0
    800001a4:	00052683          	lw	a3,0(a0)
    800001a8:	0005a703          	lw	a4,0(a1)
    800001ac:	02e68063          	beq	a3,a4,800001cc <verify_results+0x48>
    800001b0:	00200613          	li	a2,2
    800001b4:	01561073          	csrw	0x15,a2
    800001b8:	00000013          	nop
    800001bc:	00000013          	nop
    800001c0:	00000013          	nop
    800001c4:	00000013          	nop
    800001c8:	00000013          	nop
    800001cc:	00450513          	addi	a0,a0,4
    800001d0:	00458593          	addi	a1,a1,4
    800001d4:	fcf518e3          	bne	a0,a5,800001a4 <verify_results+0x20>
    800001d8:	00000793          	li	a5,0
    800001dc:	00100793          	li	a5,1
    800001e0:	01579073          	csrw	0x15,a5
    800001e4:	00000013          	nop
    800001e8:	00000013          	nop
    800001ec:	00000013          	nop
    800001f0:	00000013          	nop
    800001f4:	00000013          	nop
    800001f8:	00008067          	ret

Disassembly of section .text.startup:

00000000800001fc <main>:
    800001fc:	fe010113          	addi	sp,sp,-32
    80000200:	00813823          	sd	s0,16(sp)
    80000204:	00913423          	sd	s1,8(sp)
    80000208:	00113c23          	sd	ra,24(sp)
    8000020c:	01213023          	sd	s2,0(sp)
    80000210:	02010413          	addi	s0,sp,32
    80000214:	9c010113          	addi	sp,sp,-1600
    80000218:	00010493          	mv	s1,sp
    8000021c:	00048793          	mv	a5,s1
    80000220:	64048713          	addi	a4,s1,1600
    80000224:	0007a023          	sw	zero,0(a5)
    80000228:	00478793          	addi	a5,a5,4
    8000022c:	fee79ce3          	bne	a5,a4,80000224 <main+0x28>
    80000230:	00000913          	li	s2,0
    80000234:	00100913          	li	s2,1
    80000238:	00a91073          	csrw	0xa,s2
    8000023c:	00000013          	nop
    80000240:	00000013          	nop
    80000244:	00000013          	nop
    80000248:	00000013          	nop
    8000024c:	00000013          	nop
    80000250:	00002797          	auipc	a5,0x2
    80000254:	07078793          	addi	a5,a5,112 # 800022c0 <g_coeff>
    80000258:	01400713          	li	a4,20
    8000025c:	01400693          	li	a3,20
    80000260:	00001617          	auipc	a2,0x1
    80000264:	da060613          	addi	a2,a2,-608 # 80001000 <src>
    80000268:	00001597          	auipc	a1,0x1
    8000026c:	3d858593          	addi	a1,a1,984 # 80001640 <mask>
    80000270:	00048513          	mv	a0,s1
    80000274:	d8dff0ef          	jal	ra,80000000 <masked_filter_scalar>
    80000278:	00000913          	li	s2,0
    8000027c:	00a91073          	csrw	0xa,s2
    80000280:	00000013          	nop
    80000284:	00000013          	nop
    80000288:	00000013          	nop
    8000028c:	00000013          	nop
    80000290:	00000013          	nop
    80000294:	01400613          	li	a2,20
    80000298:	00048513          	mv	a0,s1
    8000029c:	00002597          	auipc	a1,0x2
    800002a0:	9e458593          	addi	a1,a1,-1564 # 80001c80 <ref>
    800002a4:	ee1ff0ef          	jal	ra,80000184 <verify_results>
    800002a8:	fe040113          	addi	sp,s0,-32
    800002ac:	01813083          	ld	ra,24(sp)
    800002b0:	00000513          	li	a0,0
    800002b4:	01013403          	ld	s0,16(sp)
    800002b8:	00813483          	ld	s1,8(sp)
    800002bc:	00013903          	ld	s2,0(sp)
    800002c0:	02010113          	addi	sp,sp,32
    800002c4:	00008067          	ret
